target datalayout = "e-m:e-p270:32:32-p271:32:32-p272:64:64-i64:64-i128:128-f80:128-n8:16:32:64-S128"
target triple = "x86_64-pc-linux-gnu"

%struct.pmix_object_t = type { %union.pthread_mutex_t, ptr, i32, %struct.pmix_tma }
%union.pthread_mutex_t = type { %struct.__pthread_mutex_s }
%struct.__pthread_mutex_s = type { i32, i32, i32, i32, i32, i16, i16, %struct.__pthread_internal_list }
%struct.__pthread_internal_list = type { ptr, ptr }
%struct.pmix_tma = type { ptr, ptr, ptr, ptr, ptr, ptr, ptr, ptr }
%struct.pmix_pointer_array_t = type { %struct.pmix_object_t, i32, i32, i32, i32, i32, ptr, ptr }
%struct.pmix_data_array = type { i16, i64, ptr }
%struct.pmix_proc_data_t = type { %struct.pmix_object_t, ptr, ptr }
%struct.pmix_qual_t = type { i32, ptr }

; Function Attrs: inlinehint nounwind uwtable
define internal void @pmix_tma_free(ptr noundef %0, ptr noundef %1) #2 {
  %3 = alloca ptr, align 8
  %4 = alloca ptr, align 8
  store ptr %0, ptr %3, align 8, !tbaa !15
  store ptr %1, ptr %4, align 8, !tbaa !10
  %5 = load ptr, ptr %3, align 8, !tbaa !15
  %6 = icmp ne ptr null, %5
  br i1 %6, label %7, label %13

7:                                                ; preds = %2
  %8 = load ptr, ptr %3, align 8, !tbaa !15
  %9 = getelementptr inbounds nuw %struct.pmix_tma, ptr %8, i32 0, i32 5
  %10 = load ptr, ptr %9, align 8, !tbaa !104
  %11 = load ptr, ptr %3, align 8, !tbaa !15
  %12 = load ptr, ptr %4, align 8, !tbaa !10
  call void %10(ptr noundef %11, ptr noundef %12)
  br label %15

13:                                               ; preds = %2
  %14 = load ptr, ptr %4, align 8, !tbaa !10
  call void @free(ptr noundef %14) #15
  br label %15

15:                                               ; preds = %13, %7
  ret void
}

; Function Attrs: inlinehint nounwind uwtable
define internal void @pmix_bfrops_base_tma_value_release(ptr noundef %0, ptr noundef %1) #2 {
  %3 = alloca ptr, align 8
  %4 = alloca ptr, align 8
  store ptr %0, ptr %3, align 8, !tbaa !82
  store ptr %1, ptr %4, align 8, !tbaa !15
  %5 = load ptr, ptr %3, align 8, !tbaa !82
  %6 = load ptr, ptr %5, align 8, !tbaa !84
  %7 = load ptr, ptr %4, align 8, !tbaa !15
  call void @pmix_bfrops_base_tma_value_destruct(ptr noundef %6, ptr noundef %7)
  %8 = load ptr, ptr %4, align 8, !tbaa !15
  %9 = load ptr, ptr %3, align 8, !tbaa !82
  %10 = load ptr, ptr %9, align 8, !tbaa !84
  call void @pmix_tma_free(ptr noundef %8, ptr noundef %10)
  %11 = load ptr, ptr %3, align 8, !tbaa !82
  store ptr null, ptr %11, align 8, !tbaa !84
  ret void
}

; Function Attrs: inlinehint nounwind uwtable
define internal ptr @pmix_pointer_array_get_item(ptr noundef %0, i32 noundef %1) #2 {
  %3 = alloca ptr, align 8
  %4 = alloca ptr, align 8
  %5 = alloca i32, align 4
  %6 = alloca ptr, align 8
  %7 = alloca i32, align 4
  store ptr %0, ptr %4, align 8, !tbaa !97
  store i32 %1, ptr %5, align 4, !tbaa !8
  call void @llvm.lifetime.start.p0(i64 8, ptr %6) #15
  %8 = load i32, ptr %5, align 4, !tbaa !8
  %9 = icmp sgt i32 0, %8
  br i1 %9, label %16, label %10

10:                                               ; preds = %2
  %11 = load ptr, ptr %4, align 8, !tbaa !97
  %12 = getelementptr inbounds nuw %struct.pmix_pointer_array_t, ptr %11, i32 0, i32 3
  %13 = load i32, ptr %12, align 8, !tbaa !65
  %14 = load i32, ptr %5, align 4, !tbaa !8
  %15 = icmp sle i32 %13, %14
  br label %16

16:                                               ; preds = %10, %2
  %17 = phi i1 [ true, %2 ], [ %15, %10 ]
  %18 = xor i1 %17, true
  %19 = xor i1 %18, true
  %20 = zext i1 %19 to i32
  %21 = sext i32 %20 to i64
  %22 = call i64 @llvm.expect.i64(i64 %21, i64 0)
  %23 = icmp ne i64 %22, 0
  br i1 %23, label %24, label %25

24:                                               ; preds = %16
  store ptr null, ptr %3, align 8
  store i32 1, ptr %7, align 4
  br label %34

25:                                               ; preds = %16
  %26 = load ptr, ptr %4, align 8, !tbaa !97
  %27 = getelementptr inbounds nuw %struct.pmix_pointer_array_t, ptr %26, i32 0, i32 7
  %28 = load ptr, ptr %27, align 8, !tbaa !98
  %29 = load i32, ptr %5, align 4, !tbaa !8
  %30 = sext i32 %29 to i64
  %31 = getelementptr inbounds ptr, ptr %28, i64 %30
  %32 = load ptr, ptr %31, align 8, !tbaa !10
  store ptr %32, ptr %6, align 8, !tbaa !10
  %33 = load ptr, ptr %6, align 8, !tbaa !10
  store ptr %33, ptr %3, align 8
  store i32 1, ptr %7, align 4
  br label %34

34:                                               ; preds = %25, %24
  call void @llvm.lifetime.end.p0(i64 8, ptr %6) #15
  %35 = load ptr, ptr %3, align 8
  ret ptr %35
}

; Function Attrs: inlinehint nounwind uwtable
define internal ptr @pmix_obj_get_tma(ptr noundef %0) #2 {
  %2 = alloca ptr, align 8
  %3 = alloca ptr, align 8
  store ptr %0, ptr %3, align 8, !tbaa !60
  %4 = load ptr, ptr %3, align 8, !tbaa !60
  %5 = getelementptr inbounds nuw %struct.pmix_object_t, ptr %4, i32 0, i32 3
  %6 = getelementptr inbounds nuw %struct.pmix_tma, ptr %5, i32 0, i32 0
  %7 = load ptr, ptr %6, align 8, !tbaa !62
  %8 = icmp ne ptr %7, null
  br i1 %8, label %9, label %12

9:                                                ; preds = %1
  %10 = load ptr, ptr %3, align 8, !tbaa !60
  %11 = getelementptr inbounds nuw %struct.pmix_object_t, ptr %10, i32 0, i32 3
  store ptr %11, ptr %2, align 8
  br label %13

12:                                               ; preds = %1
  store ptr null, ptr %2, align 8
  br label %13

13:                                               ; preds = %12, %9
  %14 = load ptr, ptr %2, align 8
  ret ptr %14
}

; Function Attrs: nounwind uwtable
define internal void @erase_qualifiers(ptr noundef %0, i32 noundef %1) #0 {
  %3 = alloca ptr, align 8
  %4 = alloca i32, align 4
  %5 = alloca ptr, align 8
  %6 = alloca ptr, align 8
  %7 = alloca i64, align 8
  %8 = alloca ptr, align 8
  %9 = alloca i32, align 4
  store ptr %0, ptr %3, align 8, !tbaa !10
  store i32 %1, ptr %4, align 4, !tbaa !8
  call void @llvm.lifetime.start.p0(i64 8, ptr %5) #15
  call void @llvm.lifetime.start.p0(i64 8, ptr %6) #15
  call void @llvm.lifetime.start.p0(i64 8, ptr %7) #15
  call void @llvm.lifetime.start.p0(i64 8, ptr %8) #15
  %10 = load ptr, ptr %3, align 8, !tbaa !10
  %11 = getelementptr inbounds nuw %struct.pmix_proc_data_t, ptr %10, i32 0, i32 0
  %12 = call ptr @pmix_obj_get_tma(ptr noundef %11)
  store ptr %12, ptr %8, align 8, !tbaa !15
  %13 = load ptr, ptr %3, align 8, !tbaa !10
  %14 = getelementptr inbounds nuw %struct.pmix_proc_data_t, ptr %13, i32 0, i32 2
  %15 = load ptr, ptr %14, align 8, !tbaa !52
  %16 = load i32, ptr %4, align 4, !tbaa !8
  %17 = call ptr @pmix_pointer_array_get_item(ptr noundef %15, i32 noundef %16)
  store ptr %17, ptr %5, align 8, !tbaa !47
  %18 = load ptr, ptr %5, align 8, !tbaa !47
  %19 = icmp eq ptr null, %18
  br i1 %19, label %25, label %20

20:                                               ; preds = %2
  %21 = load ptr, ptr %5, align 8, !tbaa !47
  %22 = getelementptr inbounds nuw %struct.pmix_data_array, ptr %21, i32 0, i32 2
  %23 = load ptr, ptr %22, align 8, !tbaa !49
  %24 = icmp eq ptr null, %23
  br i1 %24, label %25, label %26

25:                                               ; preds = %20, %2
  store i32 1, ptr %9, align 4
  br label %63

26:                                               ; preds = %20
  %27 = load ptr, ptr %5, align 8, !tbaa !47
  %28 = getelementptr inbounds nuw %struct.pmix_data_array, ptr %27, i32 0, i32 2
  %29 = load ptr, ptr %28, align 8, !tbaa !49
  store ptr %29, ptr %6, align 8, !tbaa !10
  store i64 0, ptr %7, align 8, !tbaa !13
  br label %30

30:                                               ; preds = %50, %26
  %31 = load i64, ptr %7, align 8, !tbaa !13
  %32 = load ptr, ptr %5, align 8, !tbaa !47
  %33 = getelementptr inbounds nuw %struct.pmix_data_array, ptr %32, i32 0, i32 1
  %34 = load i64, ptr %33, align 8, !tbaa !51
  %35 = icmp ult i64 %31, %34
  br i1 %35, label %36, label %53

36:                                               ; preds = %30
  %37 = load ptr, ptr %6, align 8, !tbaa !10
  %38 = load i64, ptr %7, align 8, !tbaa !13
  %39 = getelementptr inbounds nuw %struct.pmix_qual_t, ptr %37, i64 %38
  %40 = getelementptr inbounds nuw %struct.pmix_qual_t, ptr %39, i32 0, i32 1
  %41 = load ptr, ptr %40, align 8, !tbaa !78
  %42 = icmp ne ptr null, %41
  br i1 %42, label %43, label %49

43:                                               ; preds = %36
  %44 = load ptr, ptr %6, align 8, !tbaa !10
  %45 = load i64, ptr %7, align 8, !tbaa !13
  %46 = getelementptr inbounds nuw %struct.pmix_qual_t, ptr %44, i64 %45
  %47 = getelementptr inbounds nuw %struct.pmix_qual_t, ptr %46, i32 0, i32 1
  %48 = load ptr, ptr %8, align 8, !tbaa !15
  call void @pmix_bfrops_base_tma_value_release(ptr noundef %47, ptr noundef %48)
  br label %49

49:                                               ; preds = %43, %36
  br label %50

50:                                               ; preds = %49
  %51 = load i64, ptr %7, align 8, !tbaa !13
  %52 = add i64 %51, 1
  store i64 %52, ptr %7, align 8, !tbaa !13
  br label %30, !llvm.loop !89

53:                                               ; preds = %30
  %54 = load ptr, ptr %8, align 8, !tbaa !15
  %55 = load ptr, ptr %6, align 8, !tbaa !10
  call void @pmix_tma_free(ptr noundef %54, ptr noundef %55)
  %56 = load ptr, ptr %8, align 8, !tbaa !15
  %57 = load ptr, ptr %5, align 8, !tbaa !47
  call void @pmix_tma_free(ptr noundef %56, ptr noundef %57)
  %58 = load ptr, ptr %3, align 8, !tbaa !10
  %59 = getelementptr inbounds nuw %struct.pmix_proc_data_t, ptr %58, i32 0, i32 2
  %60 = load ptr, ptr %59, align 8, !tbaa !52
  %61 = load i32, ptr %4, align 4, !tbaa !8
  %62 = call i32 @pmix_pointer_array_set_item(ptr noundef %60, i32 noundef %61, ptr noundef null)
  store i32 0, ptr %9, align 4
  br label %63

63:                                               ; preds = %53, %25
  call void @llvm.lifetime.end.p0(i64 8, ptr %8) #15
  call void @llvm.lifetime.end.p0(i64 8, ptr %7) #15
  call void @llvm.lifetime.end.p0(i64 8, ptr %6) #15
  call void @llvm.lifetime.end.p0(i64 8, ptr %5) #15
  %64 = load i32, ptr %9, align 4
  switch i32 %64, label %66 [
    i32 0, label %65
    i32 1, label %65
  ]

65:                                               ; preds = %63, %63
  ret void

66:                                               ; preds = %63
  unreachable
}