; Function Attrs: nounwind uwtable
define internal fastcc void @erase_qualifiers(ptr noundef %0, i32 noundef %1) unnamed_addr #0 {
  %3 = getelementptr inbounds nuw i8, ptr %0, i64 56
  %4 = load ptr, ptr %3, align 8, !tbaa !3
  %.fr = freeze ptr %4
  %.not.i = icmp eq ptr %.fr, null
  %..i = select i1 %.not.i, ptr null, ptr %3
  %5 = getelementptr inbounds nuw i8, ptr %0, i64 128
  %6 = load ptr, ptr %5, align 8, !tbaa !48
  %7 = icmp slt i32 %1, 0
  br i1 %7, label %pmix_pointer_array_get_item.exit.thread, label %8, !prof !29

8:                                                ; preds = %2
  %9 = getelementptr inbounds nuw i8, ptr %6, i64 128
  %10 = load i32, ptr %9, align 8, !tbaa !58
  %.not.i21 = icmp sgt i32 %10, %1
  br i1 %.not.i21, label %pmix_pointer_array_get_item.exit, label %pmix_pointer_array_get_item.exit.thread, !prof !70

pmix_pointer_array_get_item.exit:                 ; preds = %8
  %11 = getelementptr inbounds nuw i8, ptr %6, i64 152
  %12 = load ptr, ptr %11, align 8, !tbaa !61
  %13 = zext nneg i32 %1 to i64
  %14 = getelementptr inbounds nuw ptr, ptr %12, i64 %13
  %15 = load ptr, ptr %14, align 8, !tbaa !62
  %16 = icmp eq ptr %15, null
  br i1 %16, label %pmix_pointer_array_get_item.exit.thread, label %17

17:                                               ; preds = %pmix_pointer_array_get_item.exit
  %18 = getelementptr inbounds nuw i8, ptr %15, i64 16
  %19 = load ptr, ptr %18, align 8, !tbaa !45
  %20 = icmp eq ptr %19, null
  br i1 %20, label %pmix_pointer_array_get_item.exit.thread, label %.preheader

.preheader:                                       ; preds = %17
  %21 = getelementptr inbounds nuw i8, ptr %15, i64 8
  %22 = load i64, ptr %21, align 8, !tbaa !47
  %.not27 = icmp eq i64 %22, 0
  br i1 %.not27, label %._crit_edge, label %.lr.ph

.lr.ph:                                           ; preds = %.preheader
  %23 = getelementptr inbounds nuw i8, ptr %0, i64 96
  br i1 %.not.i, label %.lr.ph.split.us, label %.lr.ph.split

.lr.ph.split.us:                                  ; preds = %.lr.ph, %28
  %24 = phi i64 [ %29, %28 ], [ %22, %.lr.ph ]
  %.026.us = phi i64 [ %30, %28 ], [ 0, %.lr.ph ]
  %25 = getelementptr inbounds nuw %struct.pmix_qual_t, ptr %19, i64 %.026.us, i32 1
  %26 = load ptr, ptr %25, align 8, !tbaa !83
  %.not.us = icmp eq ptr %26, null
  br i1 %.not.us, label %28, label %pmix_bfrops_base_tma_value_release.exit.us

pmix_bfrops_base_tma_value_release.exit.us:       ; preds = %.lr.ph.split.us
  tail call fastcc void @pmix_bfrops_base_tma_value_destruct(ptr noundef nonnull %26, ptr noundef %..i)
  %27 = load ptr, ptr %25, align 8, !tbaa !37
  tail call void @free(ptr noundef %27) #17
  store ptr null, ptr %25, align 8, !tbaa !37
  %.pre29 = load i64, ptr %21, align 8, !tbaa !47
  br label %28

28:                                               ; preds = %pmix_bfrops_base_tma_value_release.exit.us, %.lr.ph.split.us
  %29 = phi i64 [ %.pre29, %pmix_bfrops_base_tma_value_release.exit.us ], [ %24, %.lr.ph.split.us ]
  %30 = add nuw i64 %.026.us, 1
  %31 = icmp ult i64 %30, %29
  br i1 %31, label %.lr.ph.split.us, label %._crit_edge, !llvm.loop !86

.lr.ph.split:                                     ; preds = %.lr.ph, %37
  %32 = phi i64 [ %38, %37 ], [ %22, %.lr.ph ]
  %.026 = phi i64 [ %39, %37 ], [ 0, %.lr.ph ]
  %33 = getelementptr inbounds nuw %struct.pmix_qual_t, ptr %19, i64 %.026, i32 1
  %34 = load ptr, ptr %33, align 8, !tbaa !83
  %.not = icmp eq ptr %34, null
  br i1 %.not, label %37, label %pmix_bfrops_base_tma_value_release.exit

pmix_bfrops_base_tma_value_release.exit:          ; preds = %.lr.ph.split
  tail call fastcc void @pmix_bfrops_base_tma_value_destruct(ptr noundef nonnull %34, ptr noundef %..i)
  %35 = load ptr, ptr %33, align 8, !tbaa !37
  %36 = load ptr, ptr %23, align 8, !tbaa !38
  tail call void %36(ptr noundef nonnull %3, ptr noundef %35) #17
  store ptr null, ptr %33, align 8, !tbaa !37
  %.pre = load i64, ptr %21, align 8, !tbaa !47
  br label %37

37:                                               ; preds = %.lr.ph.split, %pmix_bfrops_base_tma_value_release.exit
  %38 = phi i64 [ %32, %.lr.ph.split ], [ %.pre, %pmix_bfrops_base_tma_value_release.exit ]
  %39 = add nuw i64 %.026, 1
  %40 = icmp ult i64 %39, %38
  br i1 %40, label %.lr.ph.split, label %._crit_edge, !llvm.loop !86

._crit_edge:                                      ; preds = %37, %28, %.preheader
  br i1 %.not.i, label %45, label %41

41:                                               ; preds = %._crit_edge
  %42 = getelementptr inbounds nuw i8, ptr %0, i64 96
  %43 = load ptr, ptr %42, align 8, !tbaa !38
  tail call void %43(ptr noundef nonnull %3, ptr noundef nonnull %19) #17
  %44 = load ptr, ptr %42, align 8, !tbaa !38
  tail call void %44(ptr noundef nonnull %3, ptr noundef nonnull %15) #17
  br label %pmix_tma_free.exit24

45:                                               ; preds = %._crit_edge
  tail call void @free(ptr noundef nonnull %19) #17
  tail call void @free(ptr noundef nonnull %15) #17
  br label %pmix_tma_free.exit24

pmix_tma_free.exit24:                             ; preds = %41, %45
  %46 = load ptr, ptr %5, align 8, !tbaa !48
  %47 = tail call i32 @pmix_pointer_array_set_item(ptr noundef %46, i32 noundef %1, ptr noundef null) #17
  br label %pmix_pointer_array_get_item.exit.thread

pmix_pointer_array_get_item.exit.thread:          ; preds = %2, %8, %pmix_pointer_array_get_item.exit, %17, %pmix_tma_free.exit24
  ret void
}